; Function Attrs: mustprogress nofree norecurse nosync nounwind willreturn memory(read, argmem: readwrite, inaccessiblemem: none) uwtable
define internal range(i32 0, 23) i32 @opt_lg_tcache_nslots_mul_ctl(ptr readnone captures(none) %0, ptr readnone captures(none) %1, i64 %2, ptr noundef writeonly captures(address_is_null) %3, ptr noundef captures(address_is_null) %4, ptr noundef readnone captures(address_is_null) %5, i64 noundef %6) #11 {
  %8 = alloca i64, align 8
  call void @llvm.lifetime.start.p0(i64 8, ptr nonnull %8)
  %9 = icmp ne ptr %5, null
  %10 = icmp ne i64 %6, 0
  %or.cond = or i1 %9, %10
  br i1 %or.cond, label %19, label %11

11:                                               ; preds = %7
  %12 = load i64, ptr @duckdb_je_opt_lg_tcache_nslots_mul, align 8, !tbaa !3
  store i64 %12, ptr %8, align 8, !tbaa !3
  %13 = icmp ne ptr %3, null
  %14 = icmp ne ptr %4, null
  %or.cond3 = and i1 %13, %14
  br i1 %or.cond3, label %15, label %19

15:                                               ; preds = %11
  %16 = load i64, ptr %4, align 8, !tbaa !3
  %.not = icmp eq i64 %16, 8
  br i1 %.not, label %18, label %17

17:                                               ; preds = %15
  %spec.select = tail call i64 @llvm.umin.i64(i64 %16, i64 8)
  call void @llvm.memcpy.p0.p0.i64(ptr nonnull align 1 %3, ptr nonnull align 8 %8, i64 %spec.select, i1 false)
  store i64 %spec.select, ptr %4, align 8, !tbaa !3
  br label %19

18:                                               ; preds = %15
  store i64 %12, ptr %3, align 8, !tbaa !3
  br label %19

19:                                               ; preds = %17, %7, %18, %11
  %.018 = phi i32 [ 22, %17 ], [ 1, %7 ], [ 0, %18 ], [ 0, %11 ]
  call void @llvm.lifetime.end.p0(i64 8, ptr nonnull %8)
  ret i32 %.018
}